; Function Attrs: mustprogress nounwind uwtable
define hidden void @_ZN6hermes2vm7HadesGC13yieldToOldGenEv(ptr noundef nonnull align 8 dereferenceable(8152) %this) local_unnamed_addr #4 align 2 {
entry:
  %concurrentPhase_ = getelementptr inbounds i8, ptr %this, i64 7656
  %0 = load i8, ptr %concurrentPhase_, align 8
  %cmp = icmp eq i8 %0, 2
  br i1 %cmp, label %if.then, label %if.end

if.then:                                          ; preds = %entry
  tail call void @_ZN6hermes2vm7HadesGC18incrementalCollectEb(ptr noundef nonnull align 8 dereferenceable(8152) %this, i1 noundef zeroext false)
  tail call void @_ZN6hermes2vm7HadesGC21collectOGInBackgroundEv(ptr noundef nonnull align 8 dereferenceable(8152) %this)
  br label %if.end

if.end:                                           ; preds = %if.then, %entry
  ret void
}